; Function Attrs: mustprogress uwtable
define dso_local void @_ZN4Luau7Fixture7parseExERKNSt7__cxx1112basic_stringIcSt11char_traitsIcESaIcEEERKNS_12ParseOptionsE(ptr dead_on_unwind noalias writable sret(%"struct.Luau::ParseResult") align 8 %0, ptr noundef nonnull align 8 captures(none) dereferenceable(2232) %1, ptr noundef nonnull align 8 dereferenceable(32) %2, ptr noundef nonnull readonly align 1 captures(none) dereferenceable(2) %3) local_unnamed_addr #6 align 2 personality ptr @__gxx_personality_v0 {
  %5 = alloca %"class.std::vector.141", align 8
  tail call void @_ZN4Luau7Fixture8tryParseERKNSt7__cxx1112basic_stringIcSt11char_traitsIcESaIcEEERKNS_12ParseOptionsE(ptr dead_on_unwind writable sret(%"struct.Luau::ParseResult") align 8 %0, ptr noundef nonnull align 8 dereferenceable(2232) %1, ptr noundef nonnull align 8 dereferenceable(32) %2, ptr noundef nonnull align 1 dereferenceable(2) %3)
  %6 = getelementptr inbounds nuw i8, ptr %0, i64 40
  %7 = load ptr, ptr %6, align 8
  %8 = getelementptr inbounds nuw i8, ptr %0, i64 48
  %9 = load ptr, ptr %8, align 8
  %10 = icmp eq ptr %7, %9
  br i1 %10, label %21, label %11

11:                                               ; preds = %4
  %12 = tail call ptr @__cxa_allocate_exception(i64 64) #27
  invoke void @_ZNSt6vectorIN4Luau10ParseErrorESaIS1_EEC2ERKS3_(ptr noundef nonnull align 8 dereferenceable(24) %5, ptr noundef nonnull align 8 dereferenceable(24) %6)
          to label %13 unwind label %.thread

13:                                               ; preds = %11
  invoke void @_ZN4Luau11ParseErrorsC1ESt6vectorINS_10ParseErrorESaIS2_EE(ptr noundef nonnull align 8 dereferenceable(64) %12, ptr noundef nonnull %5)
          to label %15 unwind label %.thread13

.thread13:                                        ; preds = %13
  %14 = landingpad { ptr, i32 }
          cleanup
  call void @_ZNSt6vectorIN4Luau10ParseErrorESaIS1_EED2Ev(ptr noundef nonnull align 8 dereferenceable(24) %5) #27
  br label %19

15:                                               ; preds = %13
  invoke void @__cxa_throw(ptr nonnull %12, ptr nonnull @_ZTIN4Luau11ParseErrorsE, ptr nonnull @_ZN4Luau11ParseErrorsD2Ev) #30
          to label %22 unwind label %17

.thread:                                          ; preds = %11
  %16 = landingpad { ptr, i32 }
          cleanup
  br label %19

17:                                               ; preds = %15
  %18 = landingpad { ptr, i32 }
          cleanup
  call void @_ZNSt6vectorIN4Luau10ParseErrorESaIS1_EED2Ev(ptr noundef nonnull align 8 dereferenceable(24) %5) #27
  br label %20

19:                                               ; preds = %.thread13, %.thread
  %.pn12 = phi { ptr, i32 } [ %16, %.thread ], [ %14, %.thread13 ]
  call void @__cxa_free_exception(ptr %12) #27
  br label %20

20:                                               ; preds = %17, %19
  %.pn11 = phi { ptr, i32 } [ %.pn12, %19 ], [ %18, %17 ]
  call void @_ZN4Luau11ParseResultD2Ev(ptr noundef nonnull align 8 dereferenceable(88) %0) #27
  resume { ptr, i32 } %.pn11

21:                                               ; preds = %4
  ret void

22:                                               ; preds = %15
  unreachable
}